target datalayout = "e-m:e-p270:32:32-p271:32:32-p272:64:64-i64:64-i128:128-f80:128-n8:16:32:64-S128"
target triple = "x86_64-pc-linux-gnu"

%"class.cmsys::SystemInformationImplementation" = type <{ i32, %"struct.cmsys::SystemInformationImplementation::CPUFeatures", %"struct.cmsys::SystemInformationImplementation::ID", float, i32, i32, [4 x i8], %"class.std::__cxx11::basic_string", i64, i64, i64, i64, i64, %"class.std::__cxx11::basic_string", %"class.std::__cxx11::basic_string", %"class.std::__cxx11::basic_string", %"class.std::__cxx11::basic_string", %"class.std::__cxx11::basic_string", i8, [7 x i8] }>
%"struct.cmsys::SystemInformationImplementation::CPUFeatures" = type { i8, i8, i8, i8, i8, i8, i8, i8, i8, i8, i8, i8, i8, i32, i32, i32, i32, %"struct.cmsys::SystemInformationImplementation::CPUExtendedFeatures" }
%"struct.cmsys::SystemInformationImplementation::CPUExtendedFeatures" = type { i8, i8, i8, i8, i8, i32, i32, %"struct.cmsys::SystemInformationImplementation::CPUPowerManagement" }
%"struct.cmsys::SystemInformationImplementation::CPUPowerManagement" = type { i8, i8, i8 }
%"struct.cmsys::SystemInformationImplementation::ID" = type { i32, i32, i32, i32, i32, i32, %"class.std::__cxx11::basic_string", %"class.std::__cxx11::basic_string", %"class.std::__cxx11::basic_string", %"class.std::__cxx11::basic_string" }
%"class.std::__cxx11::basic_string" = type { %"struct.std::__cxx11::basic_string<char>::_Alloc_hider", i64, %union.anon }
%"struct.std::__cxx11::basic_string<char>::_Alloc_hider" = type { ptr }
%union.anon = type { i64, [8 x i8] }

@.str.10 = private unnamed_addr constant [18 x i8] c"Intel Corporation\00", align 1
@.str.11 = private unnamed_addr constant [23 x i8] c"Advanced Micro Devices\00", align 1
@.str.12 = private unnamed_addr constant [23 x i8] c"National Semiconductor\00", align 1
@.str.13 = private unnamed_addr constant [22 x i8] c"Cyrix Corp., VIA Inc.\00", align 1
@.str.14 = private unnamed_addr constant [36 x i8] c"NexGen Inc., Advanced Micro Devices\00", align 1
@.str.15 = private unnamed_addr constant [64 x i8] c"IDT\\Centaur, Via Inc., Shanghai Zhaoxin Semiconductor Co., Ltd.\00", align 1
@.str.16 = private unnamed_addr constant [30 x i8] c"United Microelectronics Corp.\00", align 1
@.str.17 = private unnamed_addr constant [5 x i8] c"Rise\00", align 1
@.str.18 = private unnamed_addr constant [10 x i8] c"Transmeta\00", align 1
@.str.19 = private unnamed_addr constant [21 x i8] c"Sun Microelectronics\00", align 1
@.str.20 = private unnamed_addr constant [4 x i8] c"IBM\00", align 1
@.str.21 = private unnamed_addr constant [9 x i8] c"Motorola\00", align 1
@.str.22 = private unnamed_addr constant [16 x i8] c"Hewlett-Packard\00", align 1
@.str.23 = private unnamed_addr constant [37 x i8] c"Chengdu Haiguang IC Design Co., Ltd.\00", align 1
@.str.24 = private unnamed_addr constant [41 x i8] c"Shanghai Zhaoxin Semiconductor Co., Ltd.\00", align 1
@.str.25 = private unnamed_addr constant [6 x i8] c"Apple\00", align 1
@.str.26 = private unnamed_addr constant [21 x i8] c"Unknown Manufacturer\00", align 1

; Function Attrs: mustprogress nounwind uwtable
define dso_local noundef ptr @_ZN5cmsys31SystemInformationImplementation11GetVendorIDEv(ptr noundef nonnull align 8 dereferenceable(457) %0) #7 align 2 {
  %2 = alloca ptr, align 8
  %3 = alloca ptr, align 8
  store ptr %0, ptr %3, align 8, !tbaa !12
  %4 = load ptr, ptr %3, align 8
  %5 = getelementptr inbounds nuw %"class.cmsys::SystemInformationImplementation", ptr %4, i32 0, i32 0
  %6 = load i32, ptr %5, align 8, !tbaa !13
  switch i32 %6, label %24 [
    i32 1, label %7
    i32 0, label %8
    i32 2, label %9
    i32 4, label %10
    i32 5, label %11
    i32 6, label %12
    i32 3, label %13
    i32 7, label %14
    i32 8, label %15
    i32 9, label %16
    i32 10, label %17
    i32 11, label %18
    i32 12, label %19
    i32 13, label %20
    i32 14, label %21
    i32 15, label %22
    i32 16, label %23
  ]

7:                                                ; preds = %1
  store ptr @.str.10, ptr %2, align 8
  br label %25

8:                                                ; preds = %1
  store ptr @.str.11, ptr %2, align 8
  br label %25

9:                                                ; preds = %1
  store ptr @.str.12, ptr %2, align 8
  br label %25

10:                                               ; preds = %1
  store ptr @.str.13, ptr %2, align 8
  br label %25

11:                                               ; preds = %1
  store ptr @.str.14, ptr %2, align 8
  br label %25

12:                                               ; preds = %1
  store ptr @.str.15, ptr %2, align 8
  br label %25

13:                                               ; preds = %1
  store ptr @.str.16, ptr %2, align 8
  br label %25

14:                                               ; preds = %1
  store ptr @.str.17, ptr %2, align 8
  br label %25

15:                                               ; preds = %1
  store ptr @.str.18, ptr %2, align 8
  br label %25

16:                                               ; preds = %1
  store ptr @.str.19, ptr %2, align 8
  br label %25

17:                                               ; preds = %1
  store ptr @.str.20, ptr %2, align 8
  br label %25

18:                                               ; preds = %1
  store ptr @.str.21, ptr %2, align 8
  br label %25

19:                                               ; preds = %1
  store ptr @.str.22, ptr %2, align 8
  br label %25

20:                                               ; preds = %1
  store ptr @.str.23, ptr %2, align 8
  br label %25

21:                                               ; preds = %1
  store ptr @.str.24, ptr %2, align 8
  br label %25

22:                                               ; preds = %1
  store ptr @.str.25, ptr %2, align 8
  br label %25

23:                                               ; preds = %1
  br label %24

24:                                               ; preds = %1, %23
  store ptr @.str.26, ptr %2, align 8
  br label %25

25:                                               ; preds = %24, %22, %21, %20, %19, %18, %17, %16, %15, %14, %13, %12, %11, %10, %9, %8, %7
  %26 = load ptr, ptr %2, align 8
  ret ptr %26
}