; Function Attrs: mustprogress nofree norecurse nosync nounwind willreturn memory(argmem: read) uwtable
define dso_local noundef nonnull ptr @_ZN5cmsys31SystemInformationImplementation11GetVendorIDEv(ptr noundef nonnull readonly align 8 captures(none) dereferenceable(457) %0) local_unnamed_addr #8 align 2 {
  %2 = load i32, ptr %0, align 8, !tbaa !17
  %3 = icmp ult i32 %2, 16
  br i1 %3, label %switch.lookup, label %5

switch.lookup:                                    ; preds = %1
  %4 = zext nneg i32 %2 to i64
  %switch.gep = getelementptr inbounds nuw [16 x ptr], ptr @switch.table._ZN5cmsys31SystemInformationImplementation11GetVendorIDEv, i64 0, i64 %4
  %switch.load = load ptr, ptr %switch.gep, align 8
  br label %5

5:                                                ; preds = %1, %switch.lookup
  %.0 = phi ptr [ %switch.load, %switch.lookup ], [ @.str.26, %1 ]
  ret ptr %.0
}